; Function Attrs: nounwind uwtable
define void @validateUnitaryComplexPair(double %0, double %1, double %2, double %3, ptr noundef %4) local_unnamed_addr #3 {
  %6 = tail call double @llvm.fmuladd.f64(double %0, double %0, double -1.000000e+00)
  %7 = tail call double @llvm.fmuladd.f64(double %1, double %1, double %6)
  %8 = tail call double @llvm.fmuladd.f64(double %2, double %2, double %7)
  %9 = tail call double @llvm.fmuladd.f64(double %3, double %3, double %8)
  %10 = tail call double @llvm.fabs.f64(double %9)
  %11 = fcmp uge double %10, 1.000000e-13
  br i1 %11, label %12, label %QuESTAssert.exit

12:                                               ; preds = %5
  tail call void @invalidQuESTInputError(ptr noundef nonnull @.str.25, ptr noundef %4)
  br label %QuESTAssert.exit

QuESTAssert.exit:                                 ; preds = %5, %12
  ret void
}